(dp0
I0
(dp1
S'total_seconds'
p2
F33.228999853134155
sS'timer_name'
p3
VMandi
p4
ssI1
(dp5
g2
F26.48199987411499
sg3
VMakan
p6
ssI2
(dp7
g2
F20.521999835968018
sg3
VTidur
p8
ssI3
(dp9
g2
F14.839999914169312
sg3
VNugas
p10
ssI4
(dp11
g2
F9.026999950408936
sg3
VPulang
p12
ss.